; Function Attrs: nounwind uwtable
define range(i32 0, 2) i32 @tls_process_cert_status_body(ptr noundef %0, ptr noundef captures(none) %1) local_unnamed_addr #0 {
  %3 = getelementptr i8, ptr %1, i64 8
  %.val.i.i = load i64, ptr %3, align 8, !tbaa !176
  %.not.i.i = icmp eq i64 %.val.i.i, 0
  br i1 %.not.i.i, label %PACKET_get_1.exit.thread, label %PACKET_get_1.exit

PACKET_get_1.exit:                                ; preds = %2
  %4 = load ptr, ptr %1, align 8, !tbaa !178
  %5 = load i8, ptr %4, align 1, !tbaa !125
  %6 = getelementptr inbounds nuw i8, ptr %4, i64 1
  store ptr %6, ptr %1, align 8, !tbaa !178
  %7 = add i64 %.val.i.i, -1
  store i64 %7, ptr %3, align 8, !tbaa !176
  %.not = icmp eq i8 %5, 1
  br i1 %.not, label %8, label %PACKET_get_1.exit.thread

PACKET_get_1.exit.thread:                         ; preds = %2, %PACKET_get_1.exit
  tail call void @ERR_new() #8
  tail call void @ERR_set_debug(ptr noundef nonnull @.str, i32 noundef 2888, ptr noundef nonnull @__func__.tls_process_cert_status_body) #8
  tail call void (ptr, i32, i32, ptr, ...) @ossl_statem_fatal(ptr noundef %0, i32 noundef 50, i32 noundef 329, ptr noundef null) #8
  br label %37

8:                                                ; preds = %PACKET_get_1.exit
  %9 = icmp ult i64 %.val.i.i, 4
  br i1 %9, label %PACKET_get_net_3_len.exit.thread, label %10

10:                                               ; preds = %8
  %11 = load i8, ptr %6, align 1, !tbaa !125
  %12 = zext i8 %11 to i64
  %13 = shl nuw nsw i64 %12, 16
  %14 = getelementptr inbounds nuw i8, ptr %4, i64 2
  %15 = load i8, ptr %14, align 1, !tbaa !125
  %16 = zext i8 %15 to i64
  %17 = shl nuw nsw i64 %16, 8
  %18 = or disjoint i64 %17, %13
  %19 = getelementptr inbounds nuw i8, ptr %4, i64 3
  %20 = load i8, ptr %19, align 1, !tbaa !125
  %21 = zext i8 %20 to i64
  %22 = or disjoint i64 %18, %21
  %23 = getelementptr inbounds nuw i8, ptr %4, i64 4
  store ptr %23, ptr %1, align 8, !tbaa !178
  %24 = add i64 %.val.i.i, -4
  store i64 %24, ptr %3, align 8, !tbaa !176
  %.not15 = icmp eq i64 %24, %22
  br i1 %.not15, label %25, label %PACKET_get_net_3_len.exit.thread

PACKET_get_net_3_len.exit.thread:                 ; preds = %8, %10
  tail call void @ERR_new() #8
  tail call void @ERR_set_debug(ptr noundef nonnull @.str, i32 noundef 2893, ptr noundef nonnull @__func__.tls_process_cert_status_body) #8
  tail call void (ptr, i32, i32, ptr, ...) @ossl_statem_fatal(ptr noundef %0, i32 noundef 50, i32 noundef 159, ptr noundef null) #8
  br label %37

25:                                               ; preds = %10
  %26 = tail call noalias ptr @CRYPTO_malloc(i64 noundef %22, ptr noundef nonnull @.str, i32 noundef 2896) #8
  %27 = getelementptr inbounds nuw i8, ptr %0, i64 2640
  store ptr %26, ptr %27, align 8, !tbaa !240
  %28 = icmp eq ptr %26, null
  %29 = getelementptr inbounds nuw i8, ptr %0, i64 2648
  br i1 %28, label %30, label %31

30:                                               ; preds = %25
  store i64 0, ptr %29, align 8, !tbaa !241
  tail call void @ERR_new() #8
  tail call void @ERR_set_debug(ptr noundef nonnull @.str, i32 noundef 2899, ptr noundef nonnull @__func__.tls_process_cert_status_body) #8
  tail call void (ptr, i32, i32, ptr, ...) @ossl_statem_fatal(ptr noundef nonnull %0, i32 noundef 80, i32 noundef 524303, ptr noundef null) #8
  br label %37

31:                                               ; preds = %25
  store i64 %22, ptr %29, align 8, !tbaa !241
  %.val.i.i17 = load i64, ptr %3, align 8, !tbaa !176
  %32 = icmp ult i64 %.val.i.i17, %22
  br i1 %32, label %36, label %PACKET_copy_bytes.exit

PACKET_copy_bytes.exit:                           ; preds = %31
  %33 = load ptr, ptr %1, align 8, !tbaa !178
  tail call void @llvm.memcpy.p0.p0.i64(ptr nonnull align 1 %26, ptr align 1 %33, i64 %22, i1 false)
  %34 = getelementptr inbounds nuw i8, ptr %33, i64 %22
  store ptr %34, ptr %1, align 8, !tbaa !178
  %35 = sub nuw i64 %.val.i.i17, %22
  store i64 %35, ptr %3, align 8, !tbaa !176
  br label %37

36:                                               ; preds = %31
  tail call void @ERR_new() #8
  tail call void @ERR_set_debug(ptr noundef nonnull @.str, i32 noundef 2904, ptr noundef nonnull @__func__.tls_process_cert_status_body) #8
  tail call void (ptr, i32, i32, ptr, ...) @ossl_statem_fatal(ptr noundef nonnull %0, i32 noundef 50, i32 noundef 159, ptr noundef null) #8
  br label %37

37:                                               ; preds = %PACKET_copy_bytes.exit, %36, %30, %PACKET_get_net_3_len.exit.thread, %PACKET_get_1.exit.thread
  %.0 = phi i32 [ 0, %PACKET_get_1.exit.thread ], [ 0, %PACKET_get_net_3_len.exit.thread ], [ 0, %30 ], [ 0, %36 ], [ 1, %PACKET_copy_bytes.exit ]
  ret i32 %.0
}